; ModuleID = '64/3316.c'
source_filename = "64/3316.c"
target datalayout = "e-m:e-p270:32:32-p271:32:32-p272:64:64-i64:64-f80:128-n8:16:32:64-S128"
target triple = "x86_64-pc-linux-gnu"

@.str = private unnamed_addr constant [3 x i8] c"%d\00", align 1
@.str.1 = private unnamed_addr constant [7 x i8] c"%d%d%d\00", align 1
@.str.2 = private unnamed_addr constant [29 x i8] c"(%d,%d,%d)-(%d,%d,%d)=%.2lf\0A\00", align 1

; Function Attrs: noinline nounwind uwtable
define dso_local i32 @main() #0 {
  %1 = alloca i32, align 4
  %2 = alloca i32, align 4
  %3 = alloca i32, align 4
  %4 = alloca i32, align 4
  %5 = alloca i32, align 4
  %6 = alloca i32, align 4
  %7 = alloca i32, align 4
  %8 = alloca i32, align 4
  %9 = alloca i32, align 4
  %10 = alloca [11 x i32], align 16
  %11 = alloca [11 x i32], align 16
  %12 = alloca [11 x i32], align 16
  %13 = alloca [51 x i32], align 16
  %14 = alloca [51 x i32], align 16
  %15 = alloca [51 x i32], align 16
  %16 = alloca [51 x double], align 16
  %17 = alloca double, align 8
  store i32 0, i32* %1, align 4
  %18 = call i32 (i8*, ...) @__isoc99_scanf(i8* getelementptr inbounds ([3 x i8], [3 x i8]* @.str, i64 0, i64 0), i32* %2)
  store i32 0, i32* %5, align 4
  br label %19

19:                                               ; preds = %34, %0
  %20 = load i32, i32* %5, align 4
  %21 = load i32, i32* %2, align 4
  %22 = icmp slt i32 %20, %21
  br i1 %22, label %23, label %37

23:                                               ; preds = %19
  %24 = load i32, i32* %5, align 4
  %25 = sext i32 %24 to i64
  %26 = getelementptr inbounds [11 x i32], [11 x i32]* %10, i64 0, i64 %25
  %27 = load i32, i32* %5, align 4
  %28 = sext i32 %27 to i64
  %29 = getelementptr inbounds [11 x i32], [11 x i32]* %11, i64 0, i64 %28
  %30 = load i32, i32* %5, align 4
  %31 = sext i32 %30 to i64
  %32 = getelementptr inbounds [11 x i32], [11 x i32]* %12, i64 0, i64 %31
  %33 = call i32 (i8*, ...) @__isoc99_scanf(i8* getelementptr inbounds ([7 x i8], [7 x i8]* @.str.1, i64 0, i64 0), i32* %26, i32* %29, i32* %32)
  br label %34

34:                                               ; preds = %23
  %35 = load i32, i32* %5, align 4
  %36 = add nsw i32 %35, 1
  store i32 %36, i32* %5, align 4
  br label %19

37:                                               ; preds = %19
  store i32 0, i32* %5, align 4
  store i32 0, i32* %6, align 4
  br label %38

38:                                               ; preds = %136, %37
  %39 = load i32, i32* %6, align 4
  %40 = load i32, i32* %2, align 4
  %41 = sub nsw i32 %40, 1
  %42 = icmp slt i32 %39, %41
  br i1 %42, label %43, label %139

43:                                               ; preds = %38
  %44 = load i32, i32* %6, align 4
  %45 = add nsw i32 %44, 1
  store i32 %45, i32* %7, align 4
  br label %46

46:                                               ; preds = %132, %43
  %47 = load i32, i32* %7, align 4
  %48 = load i32, i32* %2, align 4
  %49 = icmp slt i32 %47, %48
  br i1 %49, label %50, label %135

50:                                               ; preds = %46
  %51 = load i32, i32* %6, align 4
  %52 = sext i32 %51 to i64
  %53 = getelementptr inbounds [11 x i32], [11 x i32]* %10, i64 0, i64 %52
  %54 = load i32, i32* %53, align 4
  %55 = load i32, i32* %7, align 4
  %56 = sext i32 %55 to i64
  %57 = getelementptr inbounds [11 x i32], [11 x i32]* %10, i64 0, i64 %56
  %58 = load i32, i32* %57, align 4
  %59 = sub nsw i32 %54, %58
  %60 = load i32, i32* %6, align 4
  %61 = sext i32 %60 to i64
  %62 = getelementptr inbounds [11 x i32], [11 x i32]* %10, i64 0, i64 %61
  %63 = load i32, i32* %62, align 4
  %64 = load i32, i32* %7, align 4
  %65 = sext i32 %64 to i64
  %66 = getelementptr inbounds [11 x i32], [11 x i32]* %10, i64 0, i64 %65
  %67 = load i32, i32* %66, align 4
  %68 = sub nsw i32 %63, %67
  %69 = mul nsw i32 %59, %68
  %70 = load i32, i32* %6, align 4
  %71 = sext i32 %70 to i64
  %72 = getelementptr inbounds [11 x i32], [11 x i32]* %11, i64 0, i64 %71
  %73 = load i32, i32* %72, align 4
  %74 = load i32, i32* %7, align 4
  %75 = sext i32 %74 to i64
  %76 = getelementptr inbounds [11 x i32], [11 x i32]* %11, i64 0, i64 %75
  %77 = load i32, i32* %76, align 4
  %78 = sub nsw i32 %73, %77
  %79 = load i32, i32* %6, align 4
  %80 = sext i32 %79 to i64
  %81 = getelementptr inbounds [11 x i32], [11 x i32]* %11, i64 0, i64 %80
  %82 = load i32, i32* %81, align 4
  %83 = load i32, i32* %7, align 4
  %84 = sext i32 %83 to i64
  %85 = getelementptr inbounds [11 x i32], [11 x i32]* %11, i64 0, i64 %84
  %86 = load i32, i32* %85, align 4
  %87 = sub nsw i32 %82, %86
  %88 = mul nsw i32 %78, %87
  %89 = add nsw i32 %69, %88
  %90 = load i32, i32* %6, align 4
  %91 = sext i32 %90 to i64
  %92 = getelementptr inbounds [11 x i32], [11 x i32]* %12, i64 0, i64 %91
  %93 = load i32, i32* %92, align 4
  %94 = load i32, i32* %7, align 4
  %95 = sext i32 %94 to i64
  %96 = getelementptr inbounds [11 x i32], [11 x i32]* %12, i64 0, i64 %95
  %97 = load i32, i32* %96, align 4
  %98 = sub nsw i32 %93, %97
  %99 = load i32, i32* %6, align 4
  %100 = sext i32 %99 to i64
  %101 = getelementptr inbounds [11 x i32], [11 x i32]* %12, i64 0, i64 %100
  %102 = load i32, i32* %101, align 4
  %103 = load i32, i32* %7, align 4
  %104 = sext i32 %103 to i64
  %105 = getelementptr inbounds [11 x i32], [11 x i32]* %12, i64 0, i64 %104
  %106 = load i32, i32* %105, align 4
  %107 = sub nsw i32 %102, %106
  %108 = mul nsw i32 %98, %107
  %109 = add nsw i32 %89, %108
  %110 = load i32, i32* %5, align 4
  %111 = sext i32 %110 to i64
  %112 = getelementptr inbounds [51 x i32], [51 x i32]* %13, i64 0, i64 %111
  store i32 %109, i32* %112, align 4
  %113 = load i32, i32* %5, align 4
  %114 = sext i32 %113 to i64
  %115 = getelementptr inbounds [51 x i32], [51 x i32]* %13, i64 0, i64 %114
  %116 = load i32, i32* %115, align 4
  %117 = sitofp i32 %116 to double
  %118 = call double @sqrt(double %117) #3
  %119 = load i32, i32* %5, align 4
  %120 = sext i32 %119 to i64
  %121 = getelementptr inbounds [51 x double], [51 x double]* %16, i64 0, i64 %120
  store double %118, double* %121, align 8
  %122 = load i32, i32* %6, align 4
  %123 = load i32, i32* %5, align 4
  %124 = sext i32 %123 to i64
  %125 = getelementptr inbounds [51 x i32], [51 x i32]* %14, i64 0, i64 %124
  store i32 %122, i32* %125, align 4
  %126 = load i32, i32* %7, align 4
  %127 = load i32, i32* %5, align 4
  %128 = sext i32 %127 to i64
  %129 = getelementptr inbounds [51 x i32], [51 x i32]* %15, i64 0, i64 %128
  store i32 %126, i32* %129, align 4
  %130 = load i32, i32* %5, align 4
  %131 = add nsw i32 %130, 1
  store i32 %131, i32* %5, align 4
  br label %132

132:                                              ; preds = %50
  %133 = load i32, i32* %7, align 4
  %134 = add nsw i32 %133, 1
  store i32 %134, i32* %7, align 4
  br label %46

135:                                              ; preds = %46
  br label %136

136:                                              ; preds = %135
  %137 = load i32, i32* %6, align 4
  %138 = add nsw i32 %137, 1
  store i32 %138, i32* %6, align 4
  br label %38

139:                                              ; preds = %38
  store i32 1, i32* %5, align 4
  br label %140

140:                                              ; preds = %227, %139
  %141 = load i32, i32* %5, align 4
  %142 = load i32, i32* %2, align 4
  %143 = load i32, i32* %2, align 4
  %144 = sub nsw i32 %143, 1
  %145 = mul nsw i32 %142, %144
  %146 = sdiv i32 %145, 2
  %147 = icmp sle i32 %141, %146
  br i1 %147, label %148, label %230

148:                                              ; preds = %140
  store i32 0, i32* %6, align 4
  br label %149

149:                                              ; preds = %223, %148
  %150 = load i32, i32* %6, align 4
  %151 = load i32, i32* %2, align 4
  %152 = load i32, i32* %2, align 4
  %153 = sub nsw i32 %152, 1
  %154 = mul nsw i32 %151, %153
  %155 = sdiv i32 %154, 2
  %156 = load i32, i32* %5, align 4
  %157 = sub nsw i32 %155, %156
  %158 = icmp slt i32 %150, %157
  br i1 %158, label %159, label %226

159:                                              ; preds = %149
  %160 = load i32, i32* %6, align 4
  %161 = sext i32 %160 to i64
  %162 = getelementptr inbounds [51 x double], [51 x double]* %16, i64 0, i64 %161
  %163 = load double, double* %162, align 8
  %164 = load i32, i32* %6, align 4
  %165 = add nsw i32 %164, 1
  %166 = sext i32 %165 to i64
  %167 = getelementptr inbounds [51 x double], [51 x double]* %16, i64 0, i64 %166
  %168 = load double, double* %167, align 8
  %169 = fcmp olt double %163, %168
  br i1 %169, label %170, label %222

170:                                              ; preds = %159
  %171 = load i32, i32* %6, align 4
  %172 = sext i32 %171 to i64
  %173 = getelementptr inbounds [51 x double], [51 x double]* %16, i64 0, i64 %172
  %174 = load double, double* %173, align 8
  store double %174, double* %17, align 8
  %175 = load i32, i32* %6, align 4
  %176 = add nsw i32 %175, 1
  %177 = sext i32 %176 to i64
  %178 = getelementptr inbounds [51 x double], [51 x double]* %16, i64 0, i64 %177
  %179 = load double, double* %178, align 8
  %180 = load i32, i32* %6, align 4
  %181 = sext i32 %180 to i64
  %182 = getelementptr inbounds [51 x double], [51 x double]* %16, i64 0, i64 %181
  store double %179, double* %182, align 8
  %183 = load double, double* %17, align 8
  %184 = load i32, i32* %6, align 4
  %185 = add nsw i32 %184, 1
  %186 = sext i32 %185 to i64
  %187 = getelementptr inbounds [51 x double], [51 x double]* %16, i64 0, i64 %186
  store double %183, double* %187, align 8
  %188 = load i32, i32* %6, align 4
  %189 = sext i32 %188 to i64
  %190 = getelementptr inbounds [51 x i32], [51 x i32]* %14, i64 0, i64 %189
  %191 = load i32, i32* %190, align 4
  store i32 %191, i32* %8, align 4
  %192 = load i32, i32* %6, align 4
  %193 = add nsw i32 %192, 1
  %194 = sext i32 %193 to i64
  %195 = getelementptr inbounds [51 x i32], [51 x i32]* %14, i64 0, i64 %194
  %196 = load i32, i32* %195, align 4
  %197 = load i32, i32* %6, align 4
  %198 = sext i32 %197 to i64
  %199 = getelementptr inbounds [51 x i32], [51 x i32]* %14, i64 0, i64 %198
  store i32 %196, i32* %199, align 4
  %200 = load i32, i32* %8, align 4
  %201 = load i32, i32* %6, align 4
  %202 = add nsw i32 %201, 1
  %203 = sext i32 %202 to i64
  %204 = getelementptr inbounds [51 x i32], [51 x i32]* %14, i64 0, i64 %203
  store i32 %200, i32* %204, align 4
  %205 = load i32, i32* %6, align 4
  %206 = sext i32 %205 to i64
  %207 = getelementptr inbounds [51 x i32], [51 x i32]* %15, i64 0, i64 %206
  %208 = load i32, i32* %207, align 4
  store i32 %208, i32* %9, align 4
  %209 = load i32, i32* %6, align 4
  %210 = add nsw i32 %209, 1
  %211 = sext i32 %210 to i64
  %212 = getelementptr inbounds [51 x i32], [51 x i32]* %15, i64 0, i64 %211
  %213 = load i32, i32* %212, align 4
  %214 = load i32, i32* %6, align 4
  %215 = sext i32 %214 to i64
  %216 = getelementptr inbounds [51 x i32], [51 x i32]* %15, i64 0, i64 %215
  store i32 %213, i32* %216, align 4
  %217 = load i32, i32* %9, align 4
  %218 = load i32, i32* %6, align 4
  %219 = add nsw i32 %218, 1
  %220 = sext i32 %219 to i64
  %221 = getelementptr inbounds [51 x i32], [51 x i32]* %15, i64 0, i64 %220
  store i32 %217, i32* %221, align 4
  br label %222

222:                                              ; preds = %170, %159
  br label %223

223:                                              ; preds = %222
  %224 = load i32, i32* %6, align 4
  %225 = add nsw i32 %224, 1
  store i32 %225, i32* %6, align 4
  br label %149

226:                                              ; preds = %149
  br label %227

227:                                              ; preds = %226
  %228 = load i32, i32* %5, align 4
  %229 = add nsw i32 %228, 1
  store i32 %229, i32* %5, align 4
  br label %140

230:                                              ; preds = %140
  store i32 0, i32* %5, align 4
  br label %231

231:                                              ; preds = %277, %230
  %232 = load i32, i32* %5, align 4
  %233 = load i32, i32* %2, align 4
  %234 = load i32, i32* %2, align 4
  %235 = sub nsw i32 %234, 1
  %236 = mul nsw i32 %233, %235
  %237 = sdiv i32 %236, 2
  %238 = icmp slt i32 %232, %237
  br i1 %238, label %239, label %280

239:                                              ; preds = %231
  %240 = load i32, i32* %5, align 4
  %241 = sext i32 %240 to i64
  %242 = getelementptr inbounds [51 x i32], [51 x i32]* %14, i64 0, i64 %241
  %243 = load i32, i32* %242, align 4
  store i32 %243, i32* %3, align 4
  %244 = load i32, i32* %5, align 4
  %245 = sext i32 %244 to i64
  %246 = getelementptr inbounds [51 x i32], [51 x i32]* %15, i64 0, i64 %245
  %247 = load i32, i32* %246, align 4
  store i32 %247, i32* %4, align 4
  %248 = load i32, i32* %3, align 4
  %249 = sext i32 %248 to i64
  %250 = getelementptr inbounds [11 x i32], [11 x i32]* %10, i64 0, i64 %249
  %251 = load i32, i32* %250, align 4
  %252 = load i32, i32* %3, align 4
  %253 = sext i32 %252 to i64
  %254 = getelementptr inbounds [11 x i32], [11 x i32]* %11, i64 0, i64 %253
  %255 = load i32, i32* %254, align 4
  %256 = load i32, i32* %3, align 4
  %257 = sext i32 %256 to i64
  %258 = getelementptr inbounds [11 x i32], [11 x i32]* %12, i64 0, i64 %257
  %259 = load i32, i32* %258, align 4
  %260 = load i32, i32* %4, align 4
  %261 = sext i32 %260 to i64
  %262 = getelementptr inbounds [11 x i32], [11 x i32]* %10, i64 0, i64 %261
  %263 = load i32, i32* %262, align 4
  %264 = load i32, i32* %4, align 4
  %265 = sext i32 %264 to i64
  %266 = getelementptr inbounds [11 x i32], [11 x i32]* %11, i64 0, i64 %265
  %267 = load i32, i32* %266, align 4
  %268 = load i32, i32* %4, align 4
  %269 = sext i32 %268 to i64
  %270 = getelementptr inbounds [11 x i32], [11 x i32]* %12, i64 0, i64 %269
  %271 = load i32, i32* %270, align 4
  %272 = load i32, i32* %5, align 4
  %273 = sext i32 %272 to i64
  %274 = getelementptr inbounds [51 x double], [51 x double]* %16, i64 0, i64 %273
  %275 = load double, double* %274, align 8
  %276 = call i32 (i8*, ...) @printf(i8* getelementptr inbounds ([29 x i8], [29 x i8]* @.str.2, i64 0, i64 0), i32 %251, i32 %255, i32 %259, i32 %263, i32 %267, i32 %271, double %275)
  br label %277

277:                                              ; preds = %239
  %278 = load i32, i32* %5, align 4
  %279 = add nsw i32 %278, 1
  store i32 %279, i32* %5, align 4
  br label %231

280:                                              ; preds = %231
  ret i32 0
}

declare dso_local i32 @__isoc99_scanf(i8*, ...) #1

; Function Attrs: nounwind
declare dso_local double @sqrt(double) #2

declare dso_local i32 @printf(i8*, ...) #1


!llvm.module.flags = !{!0}
!llvm.ident = !{!1}

!0 = !{i32 1, !"wchar_size", i32 4}
!1 = !{!"clang version 10.0.0-4ubuntu1 "}
